target datalayout = "e-m:e-p270:32:32-p271:32:32-p272:64:64-i64:64-i128:128-f80:128-n8:16:32:64-S128"
target triple = "x86_64-pc-linux-gnu"

%struct.PROV_ECDSA_CTX = type { ptr, ptr, ptr, i32, i8, [256 x i8], i64, [50 x i8], ptr, ptr, i64, ptr, i64, ptr, ptr, i32 }

; Function Attrs: nounwind uwtable
define internal i32 @ecdsa_digest_signverify_init(ptr noundef %0, ptr noundef %1, ptr noundef %2, ptr noundef %3, i32 noundef %4, ptr noundef %5) #0 {
  %7 = alloca i32, align 4
  %8 = alloca ptr, align 8
  %9 = alloca ptr, align 8
  %10 = alloca ptr, align 8
  %11 = alloca ptr, align 8
  %12 = alloca i32, align 4
  %13 = alloca ptr, align 8
  %14 = alloca ptr, align 8
  %15 = alloca i32, align 4
  store ptr %0, ptr %8, align 8, !tbaa !3
  store ptr %1, ptr %9, align 8, !tbaa !7
  store ptr %2, ptr %10, align 8, !tbaa !3
  store ptr %3, ptr %11, align 8, !tbaa !19
  store i32 %4, ptr %12, align 4, !tbaa !26
  store ptr %5, ptr %13, align 8, !tbaa !7
  call void @llvm.lifetime.start.p0(i64 8, ptr %14) #7
  %16 = load ptr, ptr %8, align 8, !tbaa !3
  store ptr %16, ptr %14, align 8, !tbaa !3
  %17 = call i32 @ossl_prov_is_running()
  %18 = icmp ne i32 %17, 0
  br i1 %18, label %20, label %19

19:                                               ; preds = %6
  store i32 0, ptr %7, align 4
  store i32 1, ptr %15, align 4
  br label %90

20:                                               ; preds = %6
  %21 = load ptr, ptr %8, align 8, !tbaa !3
  %22 = load ptr, ptr %10, align 8, !tbaa !3
  %23 = load ptr, ptr %11, align 8, !tbaa !19
  %24 = load i32, ptr %12, align 4, !tbaa !26
  %25 = load ptr, ptr %13, align 8, !tbaa !7
  %26 = call i32 @ecdsa_signverify_init(ptr noundef %21, ptr noundef %22, ptr noundef @ecdsa_set_ctx_params, ptr noundef %23, i32 noundef %24, ptr noundef %25)
  %27 = icmp ne i32 %26, 0
  br i1 %27, label %29, label %28

28:                                               ; preds = %20
  store i32 0, ptr %7, align 4
  store i32 1, ptr %15, align 4
  br label %90

29:                                               ; preds = %20
  %30 = load ptr, ptr %9, align 8, !tbaa !7
  %31 = icmp ne ptr %30, null
  br i1 %31, label %32, label %52

32:                                               ; preds = %29
  %33 = load ptr, ptr %9, align 8, !tbaa !7
  %34 = getelementptr inbounds i8, ptr %33, i64 0
  %35 = load i8, ptr %34, align 1, !tbaa !35
  %36 = sext i8 %35 to i32
  %37 = icmp eq i32 %36, 0
  br i1 %37, label %45, label %38

38:                                               ; preds = %32
  %39 = load ptr, ptr %14, align 8, !tbaa !3
  %40 = getelementptr inbounds nuw %struct.PROV_ECDSA_CTX, ptr %39, i32 0, i32 7
  %41 = getelementptr inbounds [50 x i8], ptr %40, i64 0, i64 0
  %42 = load ptr, ptr %9, align 8, !tbaa !7
  %43 = call i32 @OPENSSL_strcasecmp(ptr noundef %41, ptr noundef %42)
  %44 = icmp ne i32 %43, 0
  br i1 %44, label %45, label %52

45:                                               ; preds = %38, %32
  %46 = load ptr, ptr %14, align 8, !tbaa !3
  %47 = load ptr, ptr %9, align 8, !tbaa !7
  %48 = load ptr, ptr %13, align 8, !tbaa !7
  %49 = call i32 @ecdsa_setup_md(ptr noundef %46, ptr noundef %47, ptr noundef null, ptr noundef %48)
  %50 = icmp ne i32 %49, 0
  br i1 %50, label %52, label %51

51:                                               ; preds = %45
  store i32 0, ptr %7, align 4
  store i32 1, ptr %15, align 4
  br label %90

52:                                               ; preds = %45, %38, %29
  %53 = load ptr, ptr %14, align 8, !tbaa !3
  %54 = getelementptr inbounds nuw %struct.PROV_ECDSA_CTX, ptr %53, i32 0, i32 4
  %55 = load i8, ptr %54, align 4
  %56 = and i8 %55, -3
  %57 = or i8 %56, 0
  store i8 %57, ptr %54, align 4
  %58 = load ptr, ptr %14, align 8, !tbaa !3
  %59 = getelementptr inbounds nuw %struct.PROV_ECDSA_CTX, ptr %58, i32 0, i32 9
  %60 = load ptr, ptr %59, align 8, !tbaa !25
  %61 = icmp eq ptr %60, null
  br i1 %61, label %62, label %72

62:                                               ; preds = %52
  %63 = call ptr @EVP_MD_CTX_new()
  %64 = load ptr, ptr %14, align 8, !tbaa !3
  %65 = getelementptr inbounds nuw %struct.PROV_ECDSA_CTX, ptr %64, i32 0, i32 9
  store ptr %63, ptr %65, align 8, !tbaa !25
  %66 = load ptr, ptr %14, align 8, !tbaa !3
  %67 = getelementptr inbounds nuw %struct.PROV_ECDSA_CTX, ptr %66, i32 0, i32 9
  %68 = load ptr, ptr %67, align 8, !tbaa !25
  %69 = icmp eq ptr %68, null
  br i1 %69, label %70, label %71

70:                                               ; preds = %62
  br label %84

71:                                               ; preds = %62
  br label %72

72:                                               ; preds = %71, %52
  %73 = load ptr, ptr %14, align 8, !tbaa !3
  %74 = getelementptr inbounds nuw %struct.PROV_ECDSA_CTX, ptr %73, i32 0, i32 9
  %75 = load ptr, ptr %74, align 8, !tbaa !25
  %76 = load ptr, ptr %14, align 8, !tbaa !3
  %77 = getelementptr inbounds nuw %struct.PROV_ECDSA_CTX, ptr %76, i32 0, i32 8
  %78 = load ptr, ptr %77, align 8, !tbaa !27
  %79 = load ptr, ptr %11, align 8, !tbaa !19
  %80 = call i32 @EVP_DigestInit_ex2(ptr noundef %75, ptr noundef %78, ptr noundef %79)
  %81 = icmp ne i32 %80, 0
  br i1 %81, label %83, label %82

82:                                               ; preds = %72
  br label %84

83:                                               ; preds = %72
  store i32 1, ptr %7, align 4
  store i32 1, ptr %15, align 4
  br label %90

84:                                               ; preds = %82, %70
  %85 = load ptr, ptr %14, align 8, !tbaa !3
  %86 = getelementptr inbounds nuw %struct.PROV_ECDSA_CTX, ptr %85, i32 0, i32 9
  %87 = load ptr, ptr %86, align 8, !tbaa !25
  call void @EVP_MD_CTX_free(ptr noundef %87)
  %88 = load ptr, ptr %14, align 8, !tbaa !3
  %89 = getelementptr inbounds nuw %struct.PROV_ECDSA_CTX, ptr %88, i32 0, i32 9
  store ptr null, ptr %89, align 8, !tbaa !25
  store i32 0, ptr %7, align 4
  store i32 1, ptr %15, align 4
  br label %90

90:                                               ; preds = %84, %83, %51, %28, %19
  call void @llvm.lifetime.end.p0(i64 8, ptr %14) #7
  %91 = load i32, ptr %7, align 4
  ret i32 %91
}