; Function Attrs: nounwind uwtable
define internal fastcc range(i32 0, 2) i32 @ecdsa_digest_signverify_init(ptr noundef %0, ptr noundef %1, ptr noundef %2, ptr noundef %3, i32 noundef range(i32 16384, 32769) %4) unnamed_addr #0 {
  %6 = tail call i32 @ossl_prov_is_running() #8
  %.not = icmp eq i32 %6, 0
  br i1 %.not, label %35, label %7

7:                                                ; preds = %5
  %8 = tail call fastcc i32 @ecdsa_signverify_init(ptr noundef %0, ptr noundef %2, ptr noundef nonnull @ecdsa_set_ctx_params, ptr noundef %3, i32 noundef %4)
  %.not23 = icmp eq i32 %8, 0
  br i1 %.not23, label %35, label %9

9:                                                ; preds = %7
  %.not24 = icmp eq ptr %1, null
  br i1 %.not24, label %18, label %10

10:                                               ; preds = %9
  %11 = load i8, ptr %1, align 1, !tbaa !34
  %12 = icmp eq i8 %11, 0
  br i1 %12, label %16, label %13

13:                                               ; preds = %10
  %14 = getelementptr inbounds nuw i8, ptr %0, i64 296
  %15 = tail call i32 @OPENSSL_strcasecmp(ptr noundef nonnull %14, ptr noundef nonnull %1) #8
  %.not25 = icmp eq i32 %15, 0
  br i1 %.not25, label %18, label %16

16:                                               ; preds = %13, %10
  %17 = tail call fastcc i32 @ecdsa_setup_md(ptr noundef %0, ptr noundef nonnull %1, ptr noundef null)
  %.not26 = icmp eq i32 %17, 0
  br i1 %.not26, label %35, label %18

18:                                               ; preds = %16, %13, %9
  %19 = getelementptr inbounds nuw i8, ptr %0, i64 28
  %20 = load i8, ptr %19, align 4
  %21 = and i8 %20, -3
  store i8 %21, ptr %19, align 4
  %22 = getelementptr inbounds nuw i8, ptr %0, i64 360
  %23 = load ptr, ptr %22, align 8, !tbaa !18
  %24 = icmp eq ptr %23, null
  br i1 %24, label %25, label %28

25:                                               ; preds = %18
  %26 = tail call ptr @EVP_MD_CTX_new() #8
  store ptr %26, ptr %22, align 8, !tbaa !18
  %27 = icmp eq ptr %26, null
  br i1 %27, label %33, label %28

28:                                               ; preds = %25, %18
  %29 = phi ptr [ %26, %25 ], [ %23, %18 ]
  %30 = getelementptr inbounds nuw i8, ptr %0, i64 352
  %31 = load ptr, ptr %30, align 8, !tbaa !28
  %32 = tail call i32 @EVP_DigestInit_ex2(ptr noundef nonnull %29, ptr noundef %31, ptr noundef %3) #8
  %.not27 = icmp eq i32 %32, 0
  br i1 %.not27, label %._crit_edge, label %35

._crit_edge:                                      ; preds = %28
  %.pre = load ptr, ptr %22, align 8, !tbaa !18
  br label %33

33:                                               ; preds = %._crit_edge, %25
  %34 = phi ptr [ %.pre, %._crit_edge ], [ null, %25 ]
  tail call void @EVP_MD_CTX_free(ptr noundef %34) #8
  store ptr null, ptr %22, align 8, !tbaa !18
  br label %35

35:                                               ; preds = %28, %16, %7, %5, %33
  %.0 = phi i32 [ 0, %33 ], [ 0, %5 ], [ 0, %7 ], [ 0, %16 ], [ 1, %28 ]
  ret i32 %.0
}